; Function Attrs: mustprogress uwtable
define internal void @_ZN7testing8internal26CartesianProductGenerator2IN11opencv_test12_GLOBAL__N_113Feature2DTypeENSt7__cxx1112basic_stringIcSt11char_traitsIcESaIcEEEE8Iterator7AdvanceEv(ptr noundef nonnull align 8 dereferenceable(80) %0) unnamed_addr #3 align 2 {
  %2 = getelementptr inbounds i8, ptr %0, i64 56
  %3 = load ptr, ptr %2, align 8
  %4 = load ptr, ptr %3, align 8
  %5 = getelementptr inbounds i8, ptr %4, i64 24
  %6 = load ptr, ptr %5, align 8
  tail call void %6(ptr noundef nonnull align 8 dereferenceable(8) %3)
  %7 = getelementptr inbounds i8, ptr %0, i64 48
  %8 = load ptr, ptr %2, align 8
  %9 = load ptr, ptr %7, align 8
  %10 = icmp eq ptr %8, %9
  br i1 %10, label %_ZNK7testing8internal13ParamIteratorINSt7__cxx1112basic_stringIcSt11char_traitsIcESaIcEEEEeqERKS8_.exit.thread, label %_ZNK7testing8internal13ParamIteratorINSt7__cxx1112basic_stringIcSt11char_traitsIcESaIcEEEEeqERKS8_.exit

_ZNK7testing8internal13ParamIteratorINSt7__cxx1112basic_stringIcSt11char_traitsIcESaIcEEEEeqERKS8_.exit: ; preds = %1
  %11 = load ptr, ptr %8, align 8
  %12 = getelementptr inbounds i8, ptr %11, i64 48
  %13 = load ptr, ptr %12, align 8
  %14 = tail call noundef zeroext i1 %13(ptr noundef nonnull align 8 dereferenceable(8) %8, ptr noundef nonnull align 8 dereferenceable(8) %9)
  br i1 %14, label %_ZNK7testing8internal13ParamIteratorINSt7__cxx1112basic_stringIcSt11char_traitsIcESaIcEEEEeqERKS8_.exit.thread, label %36

_ZNK7testing8internal13ParamIteratorINSt7__cxx1112basic_stringIcSt11char_traitsIcESaIcEEEEeqERKS8_.exit.thread: ; preds = %1, %_ZNK7testing8internal13ParamIteratorINSt7__cxx1112basic_stringIcSt11char_traitsIcESaIcEEEEeqERKS8_.exit
  %15 = getelementptr inbounds i8, ptr %0, i64 40
  %16 = load ptr, ptr %15, align 8
  %17 = load ptr, ptr %16, align 8
  %18 = getelementptr inbounds i8, ptr %17, i64 32
  %19 = load ptr, ptr %18, align 8
  %20 = tail call noundef ptr %19(ptr noundef nonnull align 8 dereferenceable(8) %16)
  %21 = load ptr, ptr %2, align 8
  %.not.i.i = icmp eq ptr %21, %20
  br i1 %.not.i.i, label %_ZN7testing8internal13ParamIteratorINSt7__cxx1112basic_stringIcSt11char_traitsIcESaIcEEEEaSERKS8_.exit, label %22

22:                                               ; preds = %_ZNK7testing8internal13ParamIteratorINSt7__cxx1112basic_stringIcSt11char_traitsIcESaIcEEEEeqERKS8_.exit.thread
  %23 = tail call noundef zeroext i1 @_ZN7testing8internal6IsTrueEb(i1 noundef zeroext true)
  br i1 %23, label %24, label %31

24:                                               ; preds = %22
  %25 = load ptr, ptr %2, align 8
  %26 = icmp eq ptr %25, null
  br i1 %26, label %31, label %27

27:                                               ; preds = %24
  %28 = load ptr, ptr %25, align 8
  %29 = getelementptr inbounds i8, ptr %28, i64 8
  %30 = load ptr, ptr %29, align 8
  tail call void %30(ptr noundef nonnull align 8 dereferenceable(8) %25) #26
  br label %31

31:                                               ; preds = %27, %24, %22
  store ptr %20, ptr %2, align 8
  br label %_ZN7testing8internal13ParamIteratorINSt7__cxx1112basic_stringIcSt11char_traitsIcESaIcEEEEaSERKS8_.exit

_ZN7testing8internal13ParamIteratorINSt7__cxx1112basic_stringIcSt11char_traitsIcESaIcEEEEaSERKS8_.exit: ; preds = %_ZNK7testing8internal13ParamIteratorINSt7__cxx1112basic_stringIcSt11char_traitsIcESaIcEEEEeqERKS8_.exit.thread, %31
  %32 = getelementptr inbounds i8, ptr %0, i64 32
  %.val.i = load ptr, ptr %32, align 8
  %33 = load ptr, ptr %.val.i, align 8
  %34 = getelementptr inbounds i8, ptr %33, i64 24
  %35 = load ptr, ptr %34, align 8
  tail call void %35(ptr noundef nonnull align 8 dereferenceable(8) %.val.i)
  br label %36

36:                                               ; preds = %_ZN7testing8internal13ParamIteratorINSt7__cxx1112basic_stringIcSt11char_traitsIcESaIcEEEEaSERKS8_.exit, %_ZNK7testing8internal13ParamIteratorINSt7__cxx1112basic_stringIcSt11char_traitsIcESaIcEEEEeqERKS8_.exit
  tail call fastcc void @_ZN7testing8internal26CartesianProductGenerator2IN11opencv_test12_GLOBAL__N_113Feature2DTypeENSt7__cxx1112basic_stringIcSt11char_traitsIcESaIcEEEE8Iterator19ComputeCurrentValueEv(ptr noundef nonnull align 8 dereferenceable(80) %0)
  ret void
}